target datalayout = "e-m:e-p270:32:32-p271:32:32-p272:64:64-i64:64-i128:128-f80:128-n8:16:32:64-S128"
target triple = "x86_64-pc-linux-gnu"

%struct.AVFilterContext = type { ptr, ptr, ptr, ptr, ptr, i32, ptr, ptr, i32, ptr, ptr, i32, i32, ptr, ptr, ptr, ptr, i32, ptr, i32, i32 }
%struct.ChannelMapContext = type { ptr, ptr, %struct.AVChannelLayout, ptr, i32, i32, ptr }
%struct.AVChannelLayout = type { i32, i32, %union.anon.1, ptr }
%union.anon.1 = type { i64 }
%struct.AVFilterFormatsConfig = type { ptr, ptr, ptr, ptr, ptr }

; Function Attrs: nounwind uwtable
define internal i32 @channelmap_query_formats(ptr noundef %0, ptr noundef %1, ptr noundef %2) #1 {
  %4 = alloca i32, align 4
  %5 = alloca ptr, align 8
  %6 = alloca ptr, align 8
  %7 = alloca ptr, align 8
  %8 = alloca ptr, align 8
  %9 = alloca ptr, align 8
  %10 = alloca i32, align 4
  %11 = alloca i32, align 4
  store ptr %0, ptr %5, align 8, !tbaa !4
  store ptr %1, ptr %6, align 8, !tbaa !49
  store ptr %2, ptr %7, align 8, !tbaa !49
  call void @llvm.lifetime.start.p0(i64 8, ptr %8) #8
  %12 = load ptr, ptr %5, align 8, !tbaa !4
  %13 = getelementptr inbounds nuw %struct.AVFilterContext, ptr %12, i32 0, i32 9
  %14 = load ptr, ptr %13, align 8, !tbaa !9
  store ptr %14, ptr %8, align 8, !tbaa !22
  call void @llvm.lifetime.start.p0(i64 8, ptr %9) #8
  store ptr null, ptr %9, align 8, !tbaa !51
  call void @llvm.lifetime.start.p0(i64 4, ptr %10) #8
  %15 = load ptr, ptr %5, align 8, !tbaa !4
  %16 = load ptr, ptr %6, align 8, !tbaa !49
  %17 = load ptr, ptr %7, align 8, !tbaa !49
  %18 = call ptr @ff_planar_sample_fmts()
  %19 = call i32 @ff_set_common_formats2(ptr noundef %15, ptr noundef %16, ptr noundef %17, ptr noundef %18)
  store i32 %19, ptr %10, align 4, !tbaa !25
  %20 = load i32, ptr %10, align 4, !tbaa !25
  %21 = icmp slt i32 %20, 0
  br i1 %21, label %22, label %24

22:                                               ; preds = %3
  %23 = load i32, ptr %10, align 4, !tbaa !25
  store i32 %23, ptr %4, align 4
  store i32 1, ptr %11, align 4
  br label %44

24:                                               ; preds = %3
  %25 = load ptr, ptr %8, align 8, !tbaa !22
  %26 = getelementptr inbounds nuw %struct.ChannelMapContext, ptr %25, i32 0, i32 2
  %27 = call i32 @ff_add_channel_layout(ptr noundef %9, ptr noundef %26)
  store i32 %27, ptr %10, align 4, !tbaa !25
  %28 = load i32, ptr %10, align 4, !tbaa !25
  %29 = icmp slt i32 %28, 0
  br i1 %29, label %30, label %32

30:                                               ; preds = %24
  %31 = load i32, ptr %10, align 4, !tbaa !25
  store i32 %31, ptr %4, align 4
  store i32 1, ptr %11, align 4
  br label %44

32:                                               ; preds = %24
  %33 = load ptr, ptr %9, align 8, !tbaa !51
  %34 = load ptr, ptr %7, align 8, !tbaa !49
  %35 = getelementptr inbounds ptr, ptr %34, i64 0
  %36 = load ptr, ptr %35, align 8, !tbaa !53
  %37 = getelementptr inbounds nuw %struct.AVFilterFormatsConfig, ptr %36, i32 0, i32 2
  %38 = call i32 @ff_channel_layouts_ref(ptr noundef %33, ptr noundef %37)
  store i32 %38, ptr %10, align 4, !tbaa !25
  %39 = load i32, ptr %10, align 4, !tbaa !25
  %40 = icmp slt i32 %39, 0
  br i1 %40, label %41, label %43

41:                                               ; preds = %32
  %42 = load i32, ptr %10, align 4, !tbaa !25
  store i32 %42, ptr %4, align 4
  store i32 1, ptr %11, align 4
  br label %44

43:                                               ; preds = %32
  store i32 0, ptr %4, align 4
  store i32 1, ptr %11, align 4
  br label %44

44:                                               ; preds = %43, %41, %30, %22
  call void @llvm.lifetime.end.p0(i64 4, ptr %10) #8
  call void @llvm.lifetime.end.p0(i64 8, ptr %9) #8
  call void @llvm.lifetime.end.p0(i64 8, ptr %8) #8
  %45 = load i32, ptr %4, align 4
  ret i32 %45
}