; Function Attrs: nounwind uwtable
define internal range(i32 -2147483648, 1) i32 @channelmap_query_formats(ptr noundef %0, ptr noundef %1, ptr noundef %2) #1 {
  %4 = alloca ptr, align 8
  %5 = getelementptr inbounds nuw i8, ptr %0, i64 72
  %6 = load ptr, ptr %5, align 8, !tbaa !4
  call void @llvm.lifetime.start.p0(i64 8, ptr nonnull %4) #10
  store ptr null, ptr %4, align 8, !tbaa !43
  %7 = tail call ptr @ff_planar_sample_fmts() #10
  %8 = tail call i32 @ff_set_common_formats2(ptr noundef %0, ptr noundef %1, ptr noundef %2, ptr noundef %7) #10
  %9 = icmp slt i32 %8, 0
  br i1 %9, label %19, label %10

10:                                               ; preds = %3
  %11 = getelementptr inbounds nuw i8, ptr %6, i64 16
  %12 = call i32 @ff_add_channel_layout(ptr noundef nonnull %4, ptr noundef nonnull %11) #10
  %13 = icmp slt i32 %12, 0
  br i1 %13, label %19, label %14

14:                                               ; preds = %10
  %15 = load ptr, ptr %4, align 8, !tbaa !43
  %16 = load ptr, ptr %2, align 8, !tbaa !45
  %17 = getelementptr inbounds nuw i8, ptr %16, i64 16
  %18 = call i32 @ff_channel_layouts_ref(ptr noundef %15, ptr noundef nonnull %17) #10
  %. = call i32 @llvm.smin.i32(i32 %18, i32 0)
  br label %19

19:                                               ; preds = %14, %10, %3
  %.0 = phi i32 [ %8, %3 ], [ %12, %10 ], [ %., %14 ]
  call void @llvm.lifetime.end.p0(i64 8, ptr nonnull %4) #10
  ret i32 %.0
}